target datalayout = "e-m:e-p270:32:32-p271:32:32-p272:64:64-i64:64-i128:128-f80:128-n8:16:32:64-S128"
target triple = "x86_64-unknown-linux-gnu"

%struct.QEnumLookup = type { ptr, ptr, i32 }
%struct.QemuMutex = type { %union.pthread_mutex_t, i8 }
%union.pthread_mutex_t = type { %struct.__pthread_mutex_s }
%struct.__pthread_mutex_s = type { i32, i32, i32, i32, i32, i16, i16, %struct.__pthread_internal_list }
%struct.__pthread_internal_list = type { ptr, ptr }
%struct.BDRVBlkdebugState = type { i64, i64, i64, i64, i64, i64, ptr, i64, i64, i32, [48 x %struct.anon.10], %struct.anon.11, %struct.anon.12, %struct.QemuMutex }
%struct.anon.10 = type { ptr }
%struct.anon.11 = type { ptr, ptr }
%struct.anon.12 = type { ptr }
%struct.BlkdebugRule = type { i32, i32, i32, %union.anon.16, %struct.anon.20, %struct.anon.21 }
%union.anon.16 = type { %struct.anon.17 }
%struct.anon.17 = type { i64, i32, i32, i32, i64 }
%struct.anon.20 = type { ptr, ptr }
%struct.anon.21 = type { ptr }
%struct.anon.19 = type { ptr }
%struct.add_rule_data = type { ptr, i32 }
%struct.anon.18 = type { i32 }

@.str.12 = private unnamed_addr constant [25 x i8] c"../qemu/block/blkdebug.c\00", align 1
@.str.33 = private unnamed_addr constant [6 x i8] c"event\00", align 1
@.str.34 = private unnamed_addr constant [6 x i8] c"state\00", align 1
@.str.35 = private unnamed_addr constant [7 x i8] c"iotype\00", align 1
@.str.36 = private unnamed_addr constant [6 x i8] c"errno\00", align 1
@.str.37 = private unnamed_addr constant [7 x i8] c"sector\00", align 1
@.str.38 = private unnamed_addr constant [5 x i8] c"once\00", align 1
@.str.39 = private unnamed_addr constant [12 x i8] c"immediately\00", align 1
@__func__.add_rule = private unnamed_addr constant [9 x i8] c"add_rule\00", align 1
@.str.41 = private unnamed_addr constant [28 x i8] c"Missing event name for rule\00", align 1
@BlkdebugEvent_lookup = external constant %struct.QEnumLookup, align 8
@BlkdebugIOType_lookup = external constant %struct.QEnumLookup, align 8
@.str.42 = private unnamed_addr constant [10 x i8] c"new_state\00", align 1
@.str.43 = private unnamed_addr constant [4 x i8] c"tag\00", align 1
@qemu_mutex_lock_func = external global ptr, align 8

; Function Attrs: nounwind sspstrong uwtable
define internal i32 @add_rule(ptr noundef %opaque, ptr noundef %opts, ptr noundef %errp) #0 {
entry:
  %retval = alloca i32, align 4
  %opaque.addr = alloca ptr, align 8
  %opts.addr = alloca ptr, align 8
  %errp.addr = alloca ptr, align 8
  %d = alloca ptr, align 8
  %s = alloca ptr, align 8
  %event_name = alloca ptr, align 8
  %event = alloca i32, align 4
  %rule = alloca ptr, align 8
  %sector = alloca i64, align 8
  %iotype = alloca i32, align 4
  %local_error = alloca ptr, align 8
  %.compoundliteral = alloca %struct.BlkdebugRule, align 8
  %_f = alloca ptr, align 8
  %tmp = alloca ptr, align 8
  %atomic-temp = alloca ptr, align 8
  store ptr %opaque, ptr %opaque.addr, align 8
  store ptr %opts, ptr %opts.addr, align 8
  store ptr %errp, ptr %errp.addr, align 8
  %0 = load ptr, ptr %opaque.addr, align 8
  store ptr %0, ptr %d, align 8
  %1 = load ptr, ptr %d, align 8
  %s1 = getelementptr inbounds %struct.add_rule_data, ptr %1, i32 0, i32 0
  %2 = load ptr, ptr %s1, align 8
  store ptr %2, ptr %s, align 8
  store ptr null, ptr %local_error, align 8
  %3 = load ptr, ptr %opts.addr, align 8
  %call = call ptr @qemu_opt_get(ptr noundef %3, ptr noundef @.str.33)
  store ptr %call, ptr %event_name, align 8
  %4 = load ptr, ptr %event_name, align 8
  %tobool = icmp ne ptr %4, null
  br i1 %tobool, label %if.end, label %if.then

if.then:                                          ; preds = %entry
  %5 = load ptr, ptr %errp.addr, align 8
  call void (ptr, ptr, i32, ptr, ptr, ...) @error_setg_internal(ptr noundef %5, ptr noundef @.str.12, i32 noundef 196, ptr noundef @__func__.add_rule, ptr noundef @.str.41)
  store i32 -1, ptr %retval, align 4
  br label %return

if.end:                                           ; preds = %entry
  %6 = load ptr, ptr %event_name, align 8
  %7 = load ptr, ptr %errp.addr, align 8
  %call2 = call i32 @qapi_enum_parse(ptr noundef @BlkdebugEvent_lookup, ptr noundef %6, i32 noundef -1, ptr noundef %7)
  store i32 %call2, ptr %event, align 4
  %8 = load i32, ptr %event, align 4
  %cmp = icmp slt i32 %8, 0
  br i1 %cmp, label %if.then3, label %if.end4

if.then3:                                         ; preds = %if.end
  store i32 -1, ptr %retval, align 4
  br label %return

if.end4:                                          ; preds = %if.end
  %call5 = call noalias ptr @g_malloc0(i64 noundef 72) #13
  store ptr %call5, ptr %rule, align 8
  %9 = load ptr, ptr %rule, align 8
  call void @llvm.memset.p0.i64(ptr align 8 %.compoundliteral, i8 0, i64 72, i1 false)
  %event6 = getelementptr inbounds %struct.BlkdebugRule, ptr %.compoundliteral, i32 0, i32 0
  %10 = load i32, ptr %event, align 4
  store i32 %10, ptr %event6, align 8
  %action = getelementptr inbounds %struct.BlkdebugRule, ptr %.compoundliteral, i32 0, i32 1
  %11 = load ptr, ptr %d, align 8
  %action7 = getelementptr inbounds %struct.add_rule_data, ptr %11, i32 0, i32 1
  %12 = load i32, ptr %action7, align 8
  store i32 %12, ptr %action, align 4
  %state = getelementptr inbounds %struct.BlkdebugRule, ptr %.compoundliteral, i32 0, i32 2
  %13 = load ptr, ptr %opts.addr, align 8
  %call8 = call i64 @qemu_opt_get_number(ptr noundef %13, ptr noundef @.str.34, i64 noundef 0)
  %conv = trunc i64 %call8 to i32
  store i32 %conv, ptr %state, align 8
  call void @llvm.memcpy.p0.p0.i64(ptr align 8 %9, ptr align 8 %.compoundliteral, i64 72, i1 false)
  %14 = load ptr, ptr %d, align 8
  %action9 = getelementptr inbounds %struct.add_rule_data, ptr %14, i32 0, i32 1
  %15 = load i32, ptr %action9, align 8
  switch i32 %15, label %sw.epilog [
    i32 0, label %sw.bb
    i32 1, label %sw.bb34
    i32 2, label %sw.bb38
  ]

sw.bb:                                            ; preds = %if.end4
  %16 = load ptr, ptr %opts.addr, align 8
  %call10 = call i64 @qemu_opt_get_number(ptr noundef %16, ptr noundef @.str.36, i64 noundef 5)
  %conv11 = trunc i64 %call10 to i32
  %17 = load ptr, ptr %rule, align 8
  %options = getelementptr inbounds %struct.BlkdebugRule, ptr %17, i32 0, i32 3
  %error = getelementptr inbounds %struct.anon.17, ptr %options, i32 0, i32 1
  store i32 %conv11, ptr %error, align 8
  %18 = load ptr, ptr %opts.addr, align 8
  %call12 = call zeroext i1 @qemu_opt_get_bool(ptr noundef %18, ptr noundef @.str.38, i1 noundef zeroext false)
  %conv13 = zext i1 %call12 to i32
  %19 = load ptr, ptr %rule, align 8
  %options14 = getelementptr inbounds %struct.BlkdebugRule, ptr %19, i32 0, i32 3
  %once = getelementptr inbounds %struct.anon.17, ptr %options14, i32 0, i32 3
  store i32 %conv13, ptr %once, align 8
  %20 = load ptr, ptr %opts.addr, align 8
  %call15 = call zeroext i1 @qemu_opt_get_bool(ptr noundef %20, ptr noundef @.str.39, i1 noundef zeroext false)
  %conv16 = zext i1 %call15 to i32
  %21 = load ptr, ptr %rule, align 8
  %options17 = getelementptr inbounds %struct.BlkdebugRule, ptr %21, i32 0, i32 3
  %immediately = getelementptr inbounds %struct.anon.17, ptr %options17, i32 0, i32 2
  store i32 %conv16, ptr %immediately, align 4
  %22 = load ptr, ptr %opts.addr, align 8
  %call18 = call i64 @qemu_opt_get_number(ptr noundef %22, ptr noundef @.str.37, i64 noundef -1)
  store i64 %call18, ptr %sector, align 8
  %23 = load i64, ptr %sector, align 8
  %cmp19 = icmp eq i64 %23, -1
  br i1 %cmp19, label %cond.true, label %cond.false

cond.true:                                        ; preds = %sw.bb
  br label %cond.end

cond.false:                                       ; preds = %sw.bb
  %24 = load i64, ptr %sector, align 8
  %mul = mul i64 %24, 512
  br label %cond.end

cond.end:                                         ; preds = %cond.false, %cond.true
  %cond = phi i64 [ -1, %cond.true ], [ %mul, %cond.false ]
  %25 = load ptr, ptr %rule, align 8
  %options21 = getelementptr inbounds %struct.BlkdebugRule, ptr %25, i32 0, i32 3
  %offset = getelementptr inbounds %struct.anon.17, ptr %options21, i32 0, i32 4
  store i64 %cond, ptr %offset, align 8
  %26 = load ptr, ptr %opts.addr, align 8
  %call22 = call ptr @qemu_opt_get(ptr noundef %26, ptr noundef @.str.35)
  %call23 = call i32 @qapi_enum_parse(ptr noundef @BlkdebugIOType_lookup, ptr noundef %call22, i32 noundef 6, ptr noundef %local_error)
  store i32 %call23, ptr %iotype, align 4
  %27 = load ptr, ptr %local_error, align 8
  %tobool24 = icmp ne ptr %27, null
  br i1 %tobool24, label %if.then25, label %if.end26

if.then25:                                        ; preds = %cond.end
  %28 = load ptr, ptr %errp.addr, align 8
  %29 = load ptr, ptr %local_error, align 8
  call void @error_propagate(ptr noundef %28, ptr noundef %29)
  %30 = load ptr, ptr %rule, align 8
  call void @g_free(ptr noundef %30)
  store i32 -1, ptr %retval, align 4
  br label %return

if.end26:                                         ; preds = %cond.end
  %31 = load i32, ptr %iotype, align 4
  %cmp27 = icmp ne i32 %31, 6
  br i1 %cmp27, label %if.then29, label %if.else

if.then29:                                        ; preds = %if.end26
  %32 = load i32, ptr %iotype, align 4
  %sh_prom = zext i32 %32 to i64
  %shl = shl i64 1, %sh_prom
  %33 = load ptr, ptr %rule, align 8
  %options30 = getelementptr inbounds %struct.BlkdebugRule, ptr %33, i32 0, i32 3
  %iotype_mask = getelementptr inbounds %struct.anon.17, ptr %options30, i32 0, i32 0
  store i64 %shl, ptr %iotype_mask, align 8
  br label %if.end33

if.else:                                          ; preds = %if.end26
  %34 = load ptr, ptr %rule, align 8
  %options31 = getelementptr inbounds %struct.BlkdebugRule, ptr %34, i32 0, i32 3
  %iotype_mask32 = getelementptr inbounds %struct.anon.17, ptr %options31, i32 0, i32 0
  store i64 31, ptr %iotype_mask32, align 8
  br label %if.end33

if.end33:                                         ; preds = %if.else, %if.then29
  br label %sw.epilog

sw.bb34:                                          ; preds = %if.end4
  %35 = load ptr, ptr %opts.addr, align 8
  %call35 = call i64 @qemu_opt_get_number(ptr noundef %35, ptr noundef @.str.42, i64 noundef 0)
  %conv36 = trunc i64 %call35 to i32
  %36 = load ptr, ptr %rule, align 8
  %options37 = getelementptr inbounds %struct.BlkdebugRule, ptr %36, i32 0, i32 3
  %new_state = getelementptr inbounds %struct.anon.18, ptr %options37, i32 0, i32 0
  store i32 %conv36, ptr %new_state, align 8
  br label %sw.epilog

sw.bb38:                                          ; preds = %if.end4
  %37 = load ptr, ptr %opts.addr, align 8
  %call39 = call ptr @qemu_opt_get(ptr noundef %37, ptr noundef @.str.43)
  %call40 = call noalias ptr @g_strdup(ptr noundef %call39)
  %38 = load ptr, ptr %rule, align 8
  %options41 = getelementptr inbounds %struct.BlkdebugRule, ptr %38, i32 0, i32 3
  %tag = getelementptr inbounds %struct.anon.19, ptr %options41, i32 0, i32 0
  store ptr %call40, ptr %tag, align 8
  br label %sw.epilog

sw.epilog:                                        ; preds = %sw.bb38, %sw.bb34, %if.end33, %if.end4
  br label %while.cond

while.cond:                                       ; preds = %do.end, %sw.epilog
  br i1 false, label %while.body, label %while.end

while.body:                                       ; preds = %while.cond
  br label %do.body

do.body:                                          ; preds = %while.body
  call void @g_assertion_message_expr(ptr noundef null, ptr noundef @.str.12, i32 noundef 257, ptr noundef @__func__.add_rule, ptr noundef null) #14
  unreachable

do.end:                                           ; No predecessors!
  br label %while.cond

while.end:                                        ; preds = %while.cond
  %39 = load atomic i64, ptr @qemu_mutex_lock_func monotonic, align 8
  store i64 %39, ptr %atomic-temp, align 8
  %40 = load ptr, ptr %atomic-temp, align 8
  store ptr %40, ptr %tmp, align 8
  %41 = load ptr, ptr %tmp, align 8
  store ptr %41, ptr %_f, align 8
  %42 = load ptr, ptr %_f, align 8
  %43 = load ptr, ptr %s, align 8
  %lock = getelementptr inbounds %struct.BDRVBlkdebugState, ptr %43, i32 0, i32 13
  call void %42(ptr noundef %lock, ptr noundef @.str.12, i32 noundef 257)
  br label %do.body42

do.body42:                                        ; preds = %while.end
  %44 = load ptr, ptr %s, align 8
  %rules = getelementptr inbounds %struct.BDRVBlkdebugState, ptr %44, i32 0, i32 10
  %45 = load i32, ptr %event, align 4
  %idxprom = sext i32 %45 to i64
  %arrayidx = getelementptr [48 x %struct.anon.10], ptr %rules, i64 0, i64 %idxprom
  %lh_first = getelementptr inbounds %struct.anon.10, ptr %arrayidx, i32 0, i32 0
  %46 = load ptr, ptr %lh_first, align 8
  %47 = load ptr, ptr %rule, align 8
  %next = getelementptr inbounds %struct.BlkdebugRule, ptr %47, i32 0, i32 4
  %le_next = getelementptr inbounds %struct.anon.20, ptr %next, i32 0, i32 0
  store ptr %46, ptr %le_next, align 8
  %cmp43 = icmp ne ptr %46, null
  br i1 %cmp43, label %if.then45, label %if.end53

if.then45:                                        ; preds = %do.body42
  %48 = load ptr, ptr %rule, align 8
  %next46 = getelementptr inbounds %struct.BlkdebugRule, ptr %48, i32 0, i32 4
  %le_next47 = getelementptr inbounds %struct.anon.20, ptr %next46, i32 0, i32 0
  %49 = load ptr, ptr %s, align 8
  %rules48 = getelementptr inbounds %struct.BDRVBlkdebugState, ptr %49, i32 0, i32 10
  %50 = load i32, ptr %event, align 4
  %idxprom49 = sext i32 %50 to i64
  %arrayidx50 = getelementptr [48 x %struct.anon.10], ptr %rules48, i64 0, i64 %idxprom49
  %lh_first51 = getelementptr inbounds %struct.anon.10, ptr %arrayidx50, i32 0, i32 0
  %51 = load ptr, ptr %lh_first51, align 8
  %next52 = getelementptr inbounds %struct.BlkdebugRule, ptr %51, i32 0, i32 4
  %le_prev = getelementptr inbounds %struct.anon.20, ptr %next52, i32 0, i32 1
  store ptr %le_next47, ptr %le_prev, align 8
  br label %if.end53

if.end53:                                         ; preds = %if.then45, %do.body42
  %52 = load ptr, ptr %rule, align 8
  %53 = load ptr, ptr %s, align 8
  %rules54 = getelementptr inbounds %struct.BDRVBlkdebugState, ptr %53, i32 0, i32 10
  %54 = load i32, ptr %event, align 4
  %idxprom55 = sext i32 %54 to i64
  %arrayidx56 = getelementptr [48 x %struct.anon.10], ptr %rules54, i64 0, i64 %idxprom55
  %lh_first57 = getelementptr inbounds %struct.anon.10, ptr %arrayidx56, i32 0, i32 0
  store ptr %52, ptr %lh_first57, align 8
  %55 = load ptr, ptr %s, align 8
  %rules58 = getelementptr inbounds %struct.BDRVBlkdebugState, ptr %55, i32 0, i32 10
  %56 = load i32, ptr %event, align 4
  %idxprom59 = sext i32 %56 to i64
  %arrayidx60 = getelementptr [48 x %struct.anon.10], ptr %rules58, i64 0, i64 %idxprom59
  %lh_first61 = getelementptr inbounds %struct.anon.10, ptr %arrayidx60, i32 0, i32 0
  %57 = load ptr, ptr %rule, align 8
  %next62 = getelementptr inbounds %struct.BlkdebugRule, ptr %57, i32 0, i32 4
  %le_prev63 = getelementptr inbounds %struct.anon.20, ptr %next62, i32 0, i32 1
  store ptr %lh_first61, ptr %le_prev63, align 8
  br label %do.end64

do.end64:                                         ; preds = %if.end53
  %58 = load ptr, ptr %s, align 8
  %lock65 = getelementptr inbounds %struct.BDRVBlkdebugState, ptr %58, i32 0, i32 13
  call void @qemu_mutex_unlock_impl(ptr noundef %lock65, ptr noundef @.str.12, i32 noundef 259)
  store i32 0, ptr %retval, align 4
  br label %return

return:                                           ; preds = %do.end64, %if.then25, %if.then3, %if.then
  %59 = load i32, ptr %retval, align 4
  ret i32 %59
}