; Function Attrs: nounwind sspstrong uwtable
define internal range(i32 -1, 1) i32 @add_rule(ptr noundef readonly captures(none) %opaque, ptr noundef %opts, ptr noundef %errp) #0 {
entry:
  %local_error = alloca ptr, align 8
  %0 = load ptr, ptr %opaque, align 8
  store ptr null, ptr %local_error, align 8
  %call = tail call ptr @qemu_opt_get(ptr noundef %opts, ptr noundef nonnull @.str.33) #13
  %tobool.not = icmp eq ptr %call, null
  br i1 %tobool.not, label %if.then, label %if.end

if.then:                                          ; preds = %entry
  tail call void (ptr, ptr, i32, ptr, ptr, ...) @error_setg_internal(ptr noundef %errp, ptr noundef nonnull @.str.12, i32 noundef 196, ptr noundef nonnull @__func__.add_rule, ptr noundef nonnull @.str.41) #13
  br label %return

if.end:                                           ; preds = %entry
  %call2 = tail call i32 @qapi_enum_parse(ptr noundef nonnull @BlkdebugEvent_lookup, ptr noundef nonnull %call, i32 noundef -1, ptr noundef %errp) #13
  %cmp = icmp slt i32 %call2, 0
  br i1 %cmp, label %return, label %if.end4

if.end4:                                          ; preds = %if.end
  %call5 = tail call noalias dereferenceable_or_null(72) ptr @g_malloc0(i64 noundef 72) #16
  %action7 = getelementptr inbounds nuw i8, ptr %opaque, i64 8
  %1 = load i32, ptr %action7, align 8
  %call8 = tail call i64 @qemu_opt_get_number(ptr noundef %opts, ptr noundef nonnull @.str.34, i64 noundef 0) #13
  %conv = trunc i64 %call8 to i32
  store i32 %call2, ptr %call5, align 8
  %.compoundliteral.sroa.3.0..sroa_idx = getelementptr inbounds nuw i8, ptr %call5, i64 4
  store i32 %1, ptr %.compoundliteral.sroa.3.0..sroa_idx, align 4
  %.compoundliteral.sroa.4.0..sroa_idx = getelementptr inbounds nuw i8, ptr %call5, i64 8
  store i32 %conv, ptr %.compoundliteral.sroa.4.0..sroa_idx, align 8
  %.compoundliteral.sroa.5.0..sroa_idx = getelementptr inbounds nuw i8, ptr %call5, i64 12
  tail call void @llvm.memset.p0.i64(ptr noundef nonnull align 4 dereferenceable(60) %.compoundliteral.sroa.5.0..sroa_idx, i8 0, i64 60, i1 false)
  %2 = load i32, ptr %action7, align 8
  switch i32 %2, label %while.end [
    i32 0, label %sw.bb
    i32 1, label %sw.bb34
    i32 2, label %sw.bb38
  ]

sw.bb:                                            ; preds = %if.end4
  %call10 = tail call i64 @qemu_opt_get_number(ptr noundef %opts, ptr noundef nonnull @.str.36, i64 noundef 5) #13
  %conv11 = trunc i64 %call10 to i32
  %options = getelementptr inbounds nuw i8, ptr %call5, i64 16
  %error = getelementptr inbounds nuw i8, ptr %call5, i64 24
  store i32 %conv11, ptr %error, align 8
  %call12 = tail call zeroext i1 @qemu_opt_get_bool(ptr noundef %opts, ptr noundef nonnull @.str.38, i1 noundef zeroext false) #13
  %conv13 = zext i1 %call12 to i32
  %once = getelementptr inbounds nuw i8, ptr %call5, i64 32
  store i32 %conv13, ptr %once, align 8
  %call15 = tail call zeroext i1 @qemu_opt_get_bool(ptr noundef %opts, ptr noundef nonnull @.str.39, i1 noundef zeroext false) #13
  %conv16 = zext i1 %call15 to i32
  %immediately = getelementptr inbounds nuw i8, ptr %call5, i64 28
  store i32 %conv16, ptr %immediately, align 4
  %call18 = tail call i64 @qemu_opt_get_number(ptr noundef %opts, ptr noundef nonnull @.str.37, i64 noundef -1) #13
  %cmp19 = icmp eq i64 %call18, -1
  %mul = shl i64 %call18, 9
  %cond = select i1 %cmp19, i64 -1, i64 %mul
  %offset = getelementptr inbounds nuw i8, ptr %call5, i64 40
  store i64 %cond, ptr %offset, align 8
  %call22 = tail call ptr @qemu_opt_get(ptr noundef %opts, ptr noundef nonnull @.str.35) #13
  %call23 = call i32 @qapi_enum_parse(ptr noundef nonnull @BlkdebugIOType_lookup, ptr noundef %call22, i32 noundef 6, ptr noundef nonnull %local_error) #13
  %3 = load ptr, ptr %local_error, align 8
  %tobool24.not = icmp eq ptr %3, null
  br i1 %tobool24.not, label %if.end26, label %if.then25

if.then25:                                        ; preds = %sw.bb
  call void @error_propagate(ptr noundef %errp, ptr noundef nonnull %3) #13
  call void @g_free(ptr noundef nonnull %call5) #13
  br label %return

if.end26:                                         ; preds = %sw.bb
  %cmp27.not = icmp eq i32 %call23, 6
  br i1 %cmp27.not, label %if.else, label %if.then29

if.then29:                                        ; preds = %if.end26
  %sh_prom = zext nneg i32 %call23 to i64
  %shl = shl nuw i64 1, %sh_prom
  store i64 %shl, ptr %options, align 8
  br label %while.end

if.else:                                          ; preds = %if.end26
  store i64 31, ptr %options, align 8
  br label %while.end

sw.bb34:                                          ; preds = %if.end4
  %call35 = tail call i64 @qemu_opt_get_number(ptr noundef %opts, ptr noundef nonnull @.str.42, i64 noundef 0) #13
  %conv36 = trunc i64 %call35 to i32
  %options37 = getelementptr inbounds nuw i8, ptr %call5, i64 16
  store i32 %conv36, ptr %options37, align 8
  br label %while.end

sw.bb38:                                          ; preds = %if.end4
  %call39 = tail call ptr @qemu_opt_get(ptr noundef %opts, ptr noundef nonnull @.str.43) #13
  %call40 = tail call noalias ptr @g_strdup(ptr noundef %call39) #13
  %options41 = getelementptr inbounds nuw i8, ptr %call5, i64 16
  store ptr %call40, ptr %options41, align 8
  br label %while.end

while.end:                                        ; preds = %if.then29, %if.else, %sw.bb38, %sw.bb34, %if.end4
  %4 = load atomic i64, ptr @qemu_mutex_lock_func monotonic, align 8
  %5 = inttoptr i64 %4 to ptr
  %lock = getelementptr inbounds nuw i8, ptr %0, i64 488
  call void %5(ptr noundef nonnull %lock, ptr noundef nonnull @.str.12, i32 noundef 257) #13
  %rules = getelementptr inbounds nuw i8, ptr %0, i64 80
  %idxprom = zext nneg i32 %call2 to i64
  %arrayidx = getelementptr [48 x %struct.anon.10], ptr %rules, i64 0, i64 %idxprom
  %6 = load ptr, ptr %arrayidx, align 8
  %next = getelementptr inbounds nuw i8, ptr %call5, i64 48
  store ptr %6, ptr %next, align 8
  %cmp43.not = icmp eq ptr %6, null
  br i1 %cmp43.not, label %if.end53, label %if.then45

if.then45:                                        ; preds = %while.end
  %le_prev = getelementptr inbounds nuw i8, ptr %6, i64 56
  store ptr %next, ptr %le_prev, align 8
  br label %if.end53

if.end53:                                         ; preds = %if.then45, %while.end
  store ptr %call5, ptr %arrayidx, align 8
  %le_prev63 = getelementptr inbounds nuw i8, ptr %call5, i64 56
  store ptr %arrayidx, ptr %le_prev63, align 8
  call void @qemu_mutex_unlock_impl(ptr noundef nonnull %lock, ptr noundef nonnull @.str.12, i32 noundef 259) #13
  br label %return

return:                                           ; preds = %if.end, %if.end53, %if.then25, %if.then
  %retval.0 = phi i32 [ 0, %if.end53 ], [ -1, %if.then25 ], [ -1, %if.then ], [ -1, %if.end ]
  ret i32 %retval.0
}